; Function Attrs: mustprogress uwtable
define noundef zeroext i1 @_ZNK14debug_module_t13hart_selectedEj(ptr noundef nonnull readonly align 8 captures(none) dereferenceable(1372) %0, i32 noundef %1) local_unnamed_addr #3 align 2 personality ptr @__gxx_personality_v0 {
  %3 = zext i32 %1 to i64
  %4 = getelementptr inbounds nuw i8, ptr %0, i64 48
  %5 = load ptr, ptr %4, align 8, !tbaa !45
  %6 = load ptr, ptr %5, align 8, !tbaa !3
  %7 = getelementptr inbounds nuw i8, ptr %6, i64 48
  %8 = load ptr, ptr %7, align 8
  %9 = tail call noundef nonnull align 8 dereferenceable(144) ptr %8(ptr noundef nonnull align 8 dereferenceable(16) %5)
  %10 = getelementptr inbounds nuw i8, ptr %9, i64 104
  %11 = getelementptr inbounds nuw i8, ptr %0, i64 1180
  %12 = load i32, ptr %11, align 4, !tbaa !200
  %13 = zext i32 %12 to i64
  %14 = getelementptr inbounds nuw i8, ptr %9, i64 112
  %15 = load ptr, ptr %14, align 8, !tbaa !63
  %16 = load ptr, ptr %10, align 8, !tbaa !65
  %17 = ptrtoint ptr %15 to i64
  %18 = ptrtoint ptr %16 to i64
  %19 = sub i64 %17, %18
  %20 = ashr exact i64 %19, 3
  %.not.i.i.i = icmp ugt i64 %20, %13
  br i1 %.not.i.i.i, label %_ZNK14debug_module_t16selected_hart_idEv.exit, label %21

21:                                               ; preds = %2
  tail call void (ptr, ...) @_ZSt24__throw_out_of_range_fmtPKcz(ptr noundef nonnull @.str.2, i64 noundef %13, i64 noundef %20) #24
  unreachable

_ZNK14debug_module_t16selected_hart_idEv.exit:    ; preds = %2
  %22 = getelementptr inbounds nuw i64, ptr %16, i64 %13
  %23 = load i64, ptr %22, align 8, !tbaa !47
  %24 = icmp eq i64 %23, %3
  br i1 %24, label %39, label %25

25:                                               ; preds = %_ZNK14debug_module_t16selected_hart_idEv.exit
  %26 = getelementptr inbounds nuw i8, ptr %0, i64 1178
  %27 = load i8, ptr %26, align 2, !tbaa !204, !range !14, !noundef !15
  %28 = trunc nuw i8 %27 to i1
  br i1 %28, label %29, label %39

29:                                               ; preds = %25
  %30 = getelementptr inbounds nuw i8, ptr %0, i64 1240
  %31 = load ptr, ptr %30, align 8, !tbaa !54
  %32 = lshr i32 %1, 6
  %.zext = zext nneg i32 %32 to i64
  %33 = getelementptr inbounds nuw i64, ptr %31, i64 %.zext
  %34 = and i64 %3, 63
  %35 = shl nuw i64 1, %34
  %36 = load i64, ptr %33, align 8, !tbaa !47
  %37 = and i64 %36, %35
  %38 = icmp ne i64 %37, 0
  br label %39

39:                                               ; preds = %25, %29, %_ZNK14debug_module_t16selected_hart_idEv.exit
  %40 = phi i1 [ true, %_ZNK14debug_module_t16selected_hart_idEv.exit ], [ false, %25 ], [ %38, %29 ]
  ret i1 %40
}